target datalayout = "e-m:e-p270:32:32-p271:32:32-p272:64:64-i64:64-f80:128-n8:16:32:64-S128"
target triple = "x86_64-pc-linux-gnu"

%struct.patient = type { [10 x i8], i32 }

@.str = private unnamed_addr constant [3 x i8] c"%d\00", align 1
@.str.1 = private unnamed_addr constant [5 x i8] c"%s%d\00", align 1
@.str.2 = private unnamed_addr constant [4 x i8] c"%s\0A\00", align 1

; Function Attrs: noinline nounwind uwtable
define dso_local i32 @main() #0 {
  %1 = alloca i32, align 4
  %2 = alloca [100 x %struct.patient], align 16
  %3 = alloca i32, align 4
  %4 = alloca i32, align 4
  %5 = alloca i32, align 4
  %6 = alloca [100 x i32], align 16
  %7 = alloca i32, align 4
  %8 = alloca i32, align 4
  %9 = alloca i32, align 4
  store i32 0, i32* %1, align 4
  store i32 0, i32* %7, align 4
  store i32 0, i32* %9, align 4
  %10 = call i32 (i8*, ...) @__isoc99_scanf(i8* getelementptr inbounds ([3 x i8], [3 x i8]* @.str, i64 0, i64 0), i32* %3)
  store i32 0, i32* %4, align 4
  br label %11

11:                                               ; preds = %26, %0
  %12 = load i32, i32* %4, align 4
  %13 = load i32, i32* %3, align 4
  %14 = icmp slt i32 %12, %13
  br i1 %14, label %15, label %29

15:                                               ; preds = %11
  %16 = load i32, i32* %4, align 4
  %17 = sext i32 %16 to i64
  %18 = getelementptr inbounds [100 x %struct.patient], [100 x %struct.patient]* %2, i64 0, i64 %17
  %19 = getelementptr inbounds %struct.patient, %struct.patient* %18, i32 0, i32 0
  %20 = getelementptr inbounds [10 x i8], [10 x i8]* %19, i64 0, i64 0
  %21 = load i32, i32* %4, align 4
  %22 = sext i32 %21 to i64
  %23 = getelementptr inbounds [100 x %struct.patient], [100 x %struct.patient]* %2, i64 0, i64 %22
  %24 = getelementptr inbounds %struct.patient, %struct.patient* %23, i32 0, i32 1
  %25 = call i32 (i8*, ...) @__isoc99_scanf(i8* getelementptr inbounds ([5 x i8], [5 x i8]* @.str.1, i64 0, i64 0), i8* %20, i32* %24)
  br label %26

26:                                               ; preds = %15
  %27 = load i32, i32* %4, align 4
  %28 = add nsw i32 %27, 1
  store i32 %28, i32* %4, align 4
  br label %11

29:                                               ; preds = %11
  store i32 0, i32* %4, align 4
  br label %30

30:                                               ; preds = %53, %29
  %31 = load i32, i32* %4, align 4
  %32 = load i32, i32* %3, align 4
  %33 = icmp slt i32 %31, %32
  br i1 %33, label %34, label %56

34:                                               ; preds = %30
  %35 = load i32, i32* %4, align 4
  %36 = sext i32 %35 to i64
  %37 = getelementptr inbounds [100 x %struct.patient], [100 x %struct.patient]* %2, i64 0, i64 %36
  %38 = getelementptr inbounds %struct.patient, %struct.patient* %37, i32 0, i32 1
  %39 = load i32, i32* %38, align 4
  %40 = icmp sge i32 %39, 60
  br i1 %40, label %41, label %52

41:                                               ; preds = %34
  %42 = load i32, i32* %7, align 4
  %43 = add nsw i32 %42, 1
  store i32 %43, i32* %7, align 4
  %44 = load i32, i32* %4, align 4
  %45 = sext i32 %44 to i64
  %46 = getelementptr inbounds [100 x %struct.patient], [100 x %struct.patient]* %2, i64 0, i64 %45
  %47 = getelementptr inbounds %struct.patient, %struct.patient* %46, i32 0, i32 1
  %48 = load i32, i32* %47, align 4
  %49 = load i32, i32* %7, align 4
  %50 = sext i32 %49 to i64
  %51 = getelementptr inbounds [100 x i32], [100 x i32]* %6, i64 0, i64 %50
  store i32 %48, i32* %51, align 4
  br label %52

52:                                               ; preds = %41, %34
  br label %53

53:                                               ; preds = %52
  %54 = load i32, i32* %4, align 4
  %55 = add nsw i32 %54, 1
  store i32 %55, i32* %4, align 4
  br label %30

56:                                               ; preds = %30
  store i32 1, i32* %4, align 4
  br label %57

57:                                               ; preds = %99, %56
  %58 = load i32, i32* %4, align 4
  %59 = load i32, i32* %7, align 4
  %60 = icmp sle i32 %58, %59
  br i1 %60, label %61, label %102

61:                                               ; preds = %57
  %62 = load i32, i32* %4, align 4
  %63 = add nsw i32 %62, 1
  store i32 %63, i32* %5, align 4
  br label %64

64:                                               ; preds = %95, %61
  %65 = load i32, i32* %5, align 4
  %66 = load i32, i32* %7, align 4
  %67 = icmp sle i32 %65, %66
  br i1 %67, label %68, label %98

68:                                               ; preds = %64
  %69 = load i32, i32* %4, align 4
  %70 = sext i32 %69 to i64
  %71 = getelementptr inbounds [100 x i32], [100 x i32]* %6, i64 0, i64 %70
  %72 = load i32, i32* %71, align 4
  %73 = load i32, i32* %5, align 4
  %74 = sext i32 %73 to i64
  %75 = getelementptr inbounds [100 x i32], [100 x i32]* %6, i64 0, i64 %74
  %76 = load i32, i32* %75, align 4
  %77 = icmp slt i32 %72, %76
  br i1 %77, label %78, label %94

78:                                               ; preds = %68
  %79 = load i32, i32* %4, align 4
  %80 = sext i32 %79 to i64
  %81 = getelementptr inbounds [100 x i32], [100 x i32]* %6, i64 0, i64 %80
  %82 = load i32, i32* %81, align 4
  store i32 %82, i32* %8, align 4
  %83 = load i32, i32* %5, align 4
  %84 = sext i32 %83 to i64
  %85 = getelementptr inbounds [100 x i32], [100 x i32]* %6, i64 0, i64 %84
  %86 = load i32, i32* %85, align 4
  %87 = load i32, i32* %4, align 4
  %88 = sext i32 %87 to i64
  %89 = getelementptr inbounds [100 x i32], [100 x i32]* %6, i64 0, i64 %88
  store i32 %86, i32* %89, align 4
  %90 = load i32, i32* %8, align 4
  %91 = load i32, i32* %5, align 4
  %92 = sext i32 %91 to i64
  %93 = getelementptr inbounds [100 x i32], [100 x i32]* %6, i64 0, i64 %92
  store i32 %90, i32* %93, align 4
  br label %94

94:                                               ; preds = %78, %68
  br label %95

95:                                               ; preds = %94
  %96 = load i32, i32* %5, align 4
  %97 = add nsw i32 %96, 1
  store i32 %97, i32* %5, align 4
  br label %64

98:                                               ; preds = %64
  br label %99

99:                                               ; preds = %98
  %100 = load i32, i32* %4, align 4
  %101 = add nsw i32 %100, 1
  store i32 %101, i32* %4, align 4
  br label %57

102:                                              ; preds = %57
  store i32 1, i32* %4, align 4
  br label %103

103:                                              ; preds = %136, %102
  %104 = load i32, i32* %4, align 4
  %105 = load i32, i32* %7, align 4
  %106 = icmp sle i32 %104, %105
  br i1 %106, label %107, label %139

107:                                              ; preds = %103
  store i32 1, i32* %5, align 4
  br label %108

108:                                              ; preds = %132, %107
  %109 = load i32, i32* %5, align 4
  %110 = load i32, i32* %7, align 4
  %111 = icmp sle i32 %109, %110
  br i1 %111, label %112, label %135

112:                                              ; preds = %108
  %113 = load i32, i32* %4, align 4
  %114 = sext i32 %113 to i64
  %115 = getelementptr inbounds [100 x i32], [100 x i32]* %6, i64 0, i64 %114
  %116 = load i32, i32* %115, align 4
  %117 = load i32, i32* %5, align 4
  %118 = sext i32 %117 to i64
  %119 = getelementptr inbounds [100 x i32], [100 x i32]* %6, i64 0, i64 %118
  %120 = load i32, i32* %119, align 4
  %121 = icmp eq i32 %116, %120
  br i1 %121, label %122, label %131

122:                                              ; preds = %112
  %123 = load i32, i32* %4, align 4
  %124 = load i32, i32* %5, align 4
  %125 = icmp ne i32 %123, %124
  br i1 %125, label %126, label %130

126:                                              ; preds = %122
  %127 = load i32, i32* %5, align 4
  %128 = sext i32 %127 to i64
  %129 = getelementptr inbounds [100 x i32], [100 x i32]* %6, i64 0, i64 %128
  store i32 0, i32* %129, align 4
  br label %130

130:                                              ; preds = %126, %122
  br label %131

131:                                              ; preds = %130, %112
  br label %132

132:                                              ; preds = %131
  %133 = load i32, i32* %5, align 4
  %134 = add nsw i32 %133, 1
  store i32 %134, i32* %5, align 4
  br label %108

135:                                              ; preds = %108
  br label %136

136:                                              ; preds = %135
  %137 = load i32, i32* %4, align 4
  %138 = add nsw i32 %137, 1
  store i32 %138, i32* %4, align 4
  br label %103

139:                                              ; preds = %103
  store i32 1, i32* %4, align 4
  br label %140

140:                                              ; preds = %172, %139
  %141 = load i32, i32* %4, align 4
  %142 = load i32, i32* %7, align 4
  %143 = icmp sle i32 %141, %142
  br i1 %143, label %144, label %175

144:                                              ; preds = %140
  store i32 0, i32* %5, align 4
  br label %145

145:                                              ; preds = %168, %144
  %146 = load i32, i32* %5, align 4
  %147 = load i32, i32* %3, align 4
  %148 = icmp slt i32 %146, %147
  br i1 %148, label %149, label %171

149:                                              ; preds = %145
  %150 = load i32, i32* %5, align 4
  %151 = sext i32 %150 to i64
  %152 = getelementptr inbounds [100 x %struct.patient], [100 x %struct.patient]* %2, i64 0, i64 %151
  %153 = getelementptr inbounds %struct.patient, %struct.patient* %152, i32 0, i32 1
  %154 = load i32, i32* %153, align 4
  %155 = load i32, i32* %4, align 4
  %156 = sext i32 %155 to i64
  %157 = getelementptr inbounds [100 x i32], [100 x i32]* %6, i64 0, i64 %156
  %158 = load i32, i32* %157, align 4
  %159 = icmp eq i32 %154, %158
  br i1 %159, label %160, label %167

160:                                              ; preds = %149
  %161 = load i32, i32* %5, align 4
  %162 = sext i32 %161 to i64
  %163 = getelementptr inbounds [100 x %struct.patient], [100 x %struct.patient]* %2, i64 0, i64 %162
  %164 = getelementptr inbounds %struct.patient, %struct.patient* %163, i32 0, i32 0
  %165 = getelementptr inbounds [10 x i8], [10 x i8]* %164, i64 0, i64 0
  %166 = call i32 (i8*, ...) @printf(i8* getelementptr inbounds ([4 x i8], [4 x i8]* @.str.2, i64 0, i64 0), i8* %165)
  br label %167

167:                                              ; preds = %160, %149
  br label %168

168:                                              ; preds = %167
  %169 = load i32, i32* %5, align 4
  %170 = add nsw i32 %169, 1
  store i32 %170, i32* %5, align 4
  br label %145

171:                                              ; preds = %145
  br label %172

172:                                              ; preds = %171
  %173 = load i32, i32* %4, align 4
  %174 = add nsw i32 %173, 1
  store i32 %174, i32* %4, align 4
  br label %140

175:                                              ; preds = %140
  store i32 0, i32* %4, align 4
  br label %176

176:                                              ; preds = %195, %175
  %177 = load i32, i32* %4, align 4
  %178 = load i32, i32* %3, align 4
  %179 = icmp slt i32 %177, %178
  br i1 %179, label %180, label %198

180:                                              ; preds = %176
  %181 = load i32, i32* %4, align 4
  %182 = sext i32 %181 to i64
  %183 = getelementptr inbounds [100 x %struct.patient], [100 x %struct.patient]* %2, i64 0, i64 %182
  %184 = getelementptr inbounds %struct.patient, %struct.patient* %183, i32 0, i32 1
  %185 = load i32, i32* %184, align 4
  %186 = icmp slt i32 %185, 60
  br i1 %186, label %187, label %194

187:                                              ; preds = %180
  %188 = load i32, i32* %4, align 4
  %189 = sext i32 %188 to i64
  %190 = getelementptr inbounds [100 x %struct.patient], [100 x %struct.patient]* %2, i64 0, i64 %189
  %191 = getelementptr inbounds %struct.patient, %struct.patient* %190, i32 0, i32 0
  %192 = getelementptr inbounds [10 x i8], [10 x i8]* %191, i64 0, i64 0
  %193 = call i32 (i8*, ...) @printf(i8* getelementptr inbounds ([4 x i8], [4 x i8]* @.str.2, i64 0, i64 0), i8* %192)
  br label %194

194:                                              ; preds = %187, %180
  br label %195

195:                                              ; preds = %194
  %196 = load i32, i32* %4, align 4
  %197 = add nsw i32 %196, 1
  store i32 %197, i32* %4, align 4
  br label %176

198:                                              ; preds = %176
  ret i32 0
}